; Function Attrs: null_pointer_is_valid sspstrong uwtable
define internal noundef zeroext i1 @column_format_is_default_cb(ptr noundef readonly captures(none) %0) #1 {
  %2 = alloca %struct.find_pref_arg_t, align 8
  %3 = getelementptr inbounds nuw i8, ptr %0, i64 40
  %4 = load ptr, ptr %3, align 8
  %5 = load ptr, ptr %4, align 8
  %6 = tail call ptr @g_list_first(ptr noundef %5)
  %7 = getelementptr inbounds nuw i8, ptr %0, i64 56
  %8 = load ptr, ptr %7, align 8
  %9 = tail call ptr @g_list_first(ptr noundef %8)
  %10 = load ptr, ptr @gui_column_module, align 8
  call void @llvm.lifetime.start.p0(i64 24, ptr nonnull %2) #25
  %11 = icmp eq ptr %10, null
  br i1 %11, label %prefs_find_preference.exit.thread, label %12

12:                                               ; preds = %1
  %13 = getelementptr inbounds nuw i8, ptr %10, i64 40
  %14 = load ptr, ptr %13, align 8
  %15 = tail call ptr @g_list_find_custom(ptr noundef %14, ptr noundef nonnull @.str.134, ptr noundef nonnull @preference_match)
  %16 = getelementptr inbounds nuw i8, ptr %2, i64 16
  store ptr null, ptr %16, align 8
  %17 = icmp eq ptr %15, null
  br i1 %17, label %18, label %prefs_find_preference.exit

18:                                               ; preds = %12
  store ptr null, ptr %2, align 8
  %19 = getelementptr inbounds nuw i8, ptr %10, i64 56
  %20 = load ptr, ptr %19, align 8
  %.not.i.i = icmp eq ptr %20, null
  br i1 %.not.i.i, label %prefs_find_preference.exit.thread, label %21

21:                                               ; preds = %18
  %22 = getelementptr inbounds nuw i8, ptr %2, i64 8
  store ptr @.str.134, ptr %22, align 8
  %23 = call zeroext i1 @wmem_tree_foreach(ptr noundef nonnull %20, ptr noundef nonnull @module_find_pref_cb, ptr noundef nonnull %2)
  %.pr.i.i = load ptr, ptr %2, align 8
  %24 = icmp eq ptr %.pr.i.i, null
  br i1 %24, label %prefs_find_preference.exit.thread, label %prefs_find_preference.exit

prefs_find_preference.exit.thread:                ; preds = %1, %21, %18
  call void @llvm.lifetime.end.p0(i64 24, ptr nonnull %2) #25
  br label %32

prefs_find_preference.exit:                       ; preds = %12, %21
  %.020.i.i = phi ptr [ %.pr.i.i, %21 ], [ %15, %12 ]
  %25 = load ptr, ptr %.020.i.i, align 8
  call void @llvm.lifetime.end.p0(i64 24, ptr nonnull %2) #25
  %.not = icmp eq ptr %25, null
  br i1 %.not, label %32, label %26

26:                                               ; preds = %prefs_find_preference.exit
  %27 = getelementptr inbounds nuw i8, ptr %25, i64 40
  %28 = load ptr, ptr %27, align 8
  %29 = load i32, ptr %28, align 4
  %30 = getelementptr inbounds nuw i8, ptr %25, i64 56
  %31 = load i32, ptr %30, align 8
  %.not27 = icmp eq i32 %29, %31
  br i1 %.not27, label %32, label %.loopexit

32:                                               ; preds = %prefs_find_preference.exit.thread, %26, %prefs_find_preference.exit
  %33 = icmp ne ptr %6, null
  %34 = icmp ne ptr %9, null
  %35 = select i1 %33, i1 %34, i1 false
  br i1 %35, label %.lr.ph, label %.loopexit

.lr.ph:                                           ; preds = %32, %60
  %.036 = phi ptr [ %62, %60 ], [ %6, %32 ]
  %.02335 = phi ptr [ %64, %60 ], [ %9, %32 ]
  %36 = load ptr, ptr %.036, align 8
  %37 = load ptr, ptr %.02335, align 8
  %38 = load ptr, ptr %36, align 8
  %39 = load ptr, ptr %37, align 8
  %40 = call i32 @g_strcmp0(ptr noundef %38, ptr noundef %39)
  %.not28 = icmp eq i32 %40, 0
  br i1 %.not28, label %41, label %.loopexit

41:                                               ; preds = %.lr.ph
  %42 = getelementptr inbounds nuw i8, ptr %36, i64 8
  %43 = load i32, ptr %42, align 8
  %44 = getelementptr inbounds nuw i8, ptr %37, i64 8
  %45 = load i32, ptr %44, align 8
  %.not29 = icmp eq i32 %43, %45
  br i1 %.not29, label %46, label %.loopexit

46:                                               ; preds = %41
  %47 = icmp eq i32 %43, 4
  br i1 %47, label %48, label %60

48:                                               ; preds = %46
  %49 = getelementptr inbounds nuw i8, ptr %36, i64 16
  %50 = load ptr, ptr %49, align 8
  %.not30 = icmp eq ptr %50, null
  br i1 %.not30, label %60, label %51

51:                                               ; preds = %48
  %52 = getelementptr inbounds nuw i8, ptr %37, i64 16
  %53 = load ptr, ptr %52, align 8
  %54 = call i32 @g_strcmp0(ptr noundef nonnull %50, ptr noundef %53)
  %.not31 = icmp eq i32 %54, 0
  br i1 %.not31, label %55, label %.loopexit

55:                                               ; preds = %51
  %56 = getelementptr inbounds nuw i8, ptr %36, i64 29
  %57 = load i8, ptr %56, align 1
  %58 = getelementptr inbounds nuw i8, ptr %37, i64 29
  %59 = load i8, ptr %58, align 1
  %.not32 = icmp eq i8 %57, %59
  br i1 %.not32, label %60, label %.loopexit

60:                                               ; preds = %55, %48, %46
  %61 = getelementptr inbounds nuw i8, ptr %.036, i64 8
  %62 = load ptr, ptr %61, align 8
  %63 = getelementptr inbounds nuw i8, ptr %.02335, i64 8
  %64 = load ptr, ptr %63, align 8
  %65 = icmp ne ptr %62, null
  %66 = icmp ne ptr %64, null
  %67 = select i1 %65, i1 %66, i1 false
  br i1 %67, label %.lr.ph, label %.loopexit, !llvm.loop !52

.loopexit:                                        ; preds = %60, %55, %51, %41, %.lr.ph, %32, %26
  %.022 = phi i1 [ false, %26 ], [ true, %32 ], [ true, %60 ], [ false, %55 ], [ false, %51 ], [ false, %41 ], [ false, %.lr.ph ]
  ret i1 %.022
}